#include <math.h>
#include <stdio.h>
#include <stdlib.h>
#include <string.h>

void main()
{
	void paixu(int a[][100],int x,int y);
	int i,j,a[100][100],col,row;
	scanf("%d%d",&row,&col);
	for(i=0;i<row;i++)
		for(j=0;j<col;j++)
			scanf("%d",&a[i][j]);
	paixu(a,row,col);
}

void paixu(int a[][100],int x,int y)
{
	int sum=0,i,j,k;
	k=x+y;
	for(sum=0;sum<=k;sum++){
		for(i=0;i<=sum;i++){
			j=sum-i;
			if(i<x&&j<y)
				printf("\n%d",a[i][j]);
		}
	}
}
