; ModuleID = 'source-C-CXX/3/1866.c'
source_filename = "source-C-CXX/3/1866.c"
target datalayout = "e-m:e-p270:32:32-p271:32:32-p272:64:64-i64:64-f80:128-n8:16:32:64-S128"
target triple = "x86_64-pc-linux-gnu"

@.str = private unnamed_addr constant [5 x i8] c"%d%d\00", align 1
@.str.1 = private unnamed_addr constant [3 x i8] c"%d\00", align 1
@.str.2 = private unnamed_addr constant [4 x i8] c"\0A%d\00", align 1

; Function Attrs: nofree nounwind sspstrong uwtable
define dso_local void @main() local_unnamed_addr #0 {
  %1 = alloca [100 x [100 x i32]], align 16
  %2 = alloca i32, align 4
  %3 = alloca i32, align 4
  %4 = bitcast [100 x [100 x i32]]* %1 to i8*
  call void @llvm.lifetime.start.p0i8(i64 40000, i8* nonnull %4) #3
  %5 = bitcast i32* %2 to i8*
  call void @llvm.lifetime.start.p0i8(i64 4, i8* nonnull %5) #3
  %6 = bitcast i32* %3 to i8*
  call void @llvm.lifetime.start.p0i8(i64 4, i8* nonnull %6) #3
  %7 = call i32 (i8*, ...) @__isoc99_scanf(i8* getelementptr inbounds ([5 x i8], [5 x i8]* @.str, i64 0, i64 0), i32* nonnull %3, i32* nonnull %2)
  %8 = load i32, i32* %3, align 4, !tbaa !5
  %9 = icmp sgt i32 %8, 0
  %10 = load i32, i32* %2, align 4, !tbaa !5
  %11 = icmp sgt i32 %10, 0
  %12 = select i1 %9, i1 %11, i1 false
  br i1 %12, label %13, label %34

13:                                               ; preds = %0, %28
  %14 = phi i32 [ %29, %28 ], [ %8, %0 ]
  %15 = phi i32 [ %30, %28 ], [ %10, %0 ]
  %16 = phi i64 [ %31, %28 ], [ 0, %0 ]
  %17 = icmp sgt i32 %15, 0
  br i1 %17, label %18, label %28

18:                                               ; preds = %13, %18
  %19 = phi i64 [ %22, %18 ], [ 0, %13 ]
  %20 = getelementptr inbounds [100 x [100 x i32]], [100 x [100 x i32]]* %1, i64 0, i64 %16, i64 %19
  %21 = call i32 (i8*, ...) @__isoc99_scanf(i8* getelementptr inbounds ([3 x i8], [3 x i8]* @.str.1, i64 0, i64 0), i32* nonnull %20)
  %22 = add nuw nsw i64 %19, 1
  %23 = load i32, i32* %2, align 4, !tbaa !5
  %24 = sext i32 %23 to i64
  %25 = icmp slt i64 %22, %24
  br i1 %25, label %18, label %26, !llvm.loop !9

26:                                               ; preds = %18
  %27 = load i32, i32* %3, align 4, !tbaa !5
  br label %28

28:                                               ; preds = %26, %13
  %29 = phi i32 [ %27, %26 ], [ %14, %13 ]
  %30 = phi i32 [ %23, %26 ], [ %15, %13 ]
  %31 = add nuw nsw i64 %16, 1
  %32 = sext i32 %29 to i64
  %33 = icmp slt i64 %31, %32
  br i1 %33, label %13, label %34, !llvm.loop !11

34:                                               ; preds = %28, %0
  %35 = phi i32 [ %10, %0 ], [ %30, %28 ]
  %36 = phi i32 [ %8, %0 ], [ %29, %28 ]
  %37 = add i32 %35, %36
  %38 = icmp slt i32 %37, 0
  br i1 %38, label %64, label %39

39:                                               ; preds = %34
  %40 = sext i32 %35 to i64
  %41 = sext i32 %36 to i64
  %42 = add nuw i32 %37, 1
  %43 = zext i32 %42 to i64
  br label %44

44:                                               ; preds = %60, %39
  %45 = phi i64 [ 0, %39 ], [ %61, %60 ]
  %46 = phi i64 [ 1, %39 ], [ %62, %60 ]
  br label %47

47:                                               ; preds = %57, %44
  %48 = phi i64 [ 0, %44 ], [ %58, %57 ]
  %49 = sub nsw i64 %45, %48
  %50 = icmp slt i64 %48, %41
  %51 = icmp slt i64 %49, %40
  %52 = select i1 %50, i1 %51, i1 false
  br i1 %52, label %53, label %57

53:                                               ; preds = %47
  %54 = getelementptr inbounds [100 x [100 x i32]], [100 x [100 x i32]]* %1, i64 0, i64 %48, i64 %49
  %55 = load i32, i32* %54, align 4, !tbaa !5
  %56 = call i32 (i8*, ...) @printf(i8* nonnull dereferenceable(1) getelementptr inbounds ([4 x i8], [4 x i8]* @.str.2, i64 0, i64 0), i32 %55) #3
  br label %57

57:                                               ; preds = %53, %47
  %58 = add nuw nsw i64 %48, 1
  %59 = icmp eq i64 %58, %46
  br i1 %59, label %60, label %47, !llvm.loop !13

60:                                               ; preds = %57
  %61 = add nuw nsw i64 %45, 1
  %62 = add nuw nsw i64 %46, 1
  %63 = icmp eq i64 %61, %43
  br i1 %63, label %64, label %44, !llvm.loop !14

64:                                               ; preds = %60, %34
  call void @llvm.lifetime.end.p0i8(i64 4, i8* nonnull %6) #3
  call void @llvm.lifetime.end.p0i8(i64 4, i8* nonnull %5) #3
  call void @llvm.lifetime.end.p0i8(i64 40000, i8* nonnull %4) #3
  ret void
}

; Function Attrs: argmemonly mustprogress nofree nosync nounwind willreturn
declare void @llvm.lifetime.start.p0i8(i64 immarg, i8* nocapture) #1

; Function Attrs: nofree nounwind
declare noundef i32 @__isoc99_scanf(i8* nocapture noundef readonly, ...) local_unnamed_addr #2

; Function Attrs: nofree nounwind sspstrong uwtable
define dso_local void @paixu([100 x i32]* nocapture readonly %0, i32 %1, i32 %2) local_unnamed_addr #0 {
  %4 = add i32 %2, %1
  %5 = icmp slt i32 %4, 0
  br i1 %5, label %31, label %6

6:                                                ; preds = %3
  %7 = sext i32 %2 to i64
  %8 = sext i32 %1 to i64
  %9 = add nuw i32 %4, 1
  %10 = zext i32 %9 to i64
  br label %11

11:                                               ; preds = %6, %27
  %12 = phi i64 [ 0, %6 ], [ %28, %27 ]
  %13 = phi i64 [ 1, %6 ], [ %29, %27 ]
  br label %14

14:                                               ; preds = %11, %24
  %15 = phi i64 [ 0, %11 ], [ %25, %24 ]
  %16 = sub nsw i64 %12, %15
  %17 = icmp slt i64 %15, %8
  %18 = icmp slt i64 %16, %7
  %19 = select i1 %17, i1 %18, i1 false
  br i1 %19, label %20, label %24

20:                                               ; preds = %14
  %21 = getelementptr inbounds [100 x i32], [100 x i32]* %0, i64 %15, i64 %16
  %22 = load i32, i32* %21, align 4, !tbaa !5
  %23 = tail call i32 (i8*, ...) @printf(i8* nonnull dereferenceable(1) getelementptr inbounds ([4 x i8], [4 x i8]* @.str.2, i64 0, i64 0), i32 %22)
  br label %24

24:                                               ; preds = %14, %20
  %25 = add nuw nsw i64 %15, 1
  %26 = icmp eq i64 %25, %13
  br i1 %26, label %27, label %14, !llvm.loop !13

27:                                               ; preds = %24
  %28 = add nuw nsw i64 %12, 1
  %29 = add nuw nsw i64 %13, 1
  %30 = icmp eq i64 %28, %10
  br i1 %30, label %31, label %11, !llvm.loop !14

31:                                               ; preds = %27, %3
  ret void
}

; Function Attrs: argmemonly mustprogress nofree nosync nounwind willreturn
declare void @llvm.lifetime.end.p0i8(i64 immarg, i8* nocapture) #1

; Function Attrs: nofree nounwind
declare noundef i32 @printf(i8* nocapture noundef readonly, ...) local_unnamed_addr #2


!llvm.module.flags = !{!0, !1, !2, !3}
!llvm.ident = !{!4}

!0 = !{i32 1, !"wchar_size", i32 4}
!1 = !{i32 7, !"PIC Level", i32 2}
!2 = !{i32 7, !"PIE Level", i32 2}
!3 = !{i32 7, !"uwtable", i32 1}
!4 = !{!"clang version 13.0.0"}
!5 = !{!6, !6, i64 0}
!6 = !{!"int", !7, i64 0}
!7 = !{!"omnipotent char", !8, i64 0}
!8 = !{!"Simple C/C++ TBAA"}
!9 = distinct !{!9, !10}
!10 = !{!"llvm.loop.mustprogress"}
!11 = distinct !{!11, !10, !12}
!12 = !{!"llvm.loop.unswitch.partial.disable"}
!13 = distinct !{!13, !10}
!14 = distinct !{!14, !10}
